target datalayout = "e-m:e-p270:32:32-p271:32:32-p272:64:64-i64:64-i128:128-f80:128-n8:16:32:64-S128"
target triple = "x86_64-pc-linux-gnu"

%struct.ASN1_ITEM_st = type { i8, i64, ptr, i64, ptr, i64, ptr }
%struct.ASN1_PRIMITIVE_FUNCS_st = type { ptr, i64, ptr, ptr, ptr, ptr, ptr, ptr }
%struct.asn1_type_st = type { i32, %union.anon }
%union.anon = type { ptr }
%struct.asn1_string_st = type { i32, i32, ptr, i64 }

@.str = private unnamed_addr constant [34 x i8] c"../openssl/crypto/asn1/tasn_new.c\00", align 1

; Function Attrs: nounwind uwtable
define internal i32 @asn1_primitive_new(ptr noundef %0, ptr noundef %1, i32 noundef %2) #0 {
  %4 = alloca i32, align 4
  %5 = alloca ptr, align 8
  %6 = alloca ptr, align 8
  %7 = alloca i32, align 4
  %8 = alloca ptr, align 8
  %9 = alloca ptr, align 8
  %10 = alloca i32, align 4
  %11 = alloca i32, align 4
  %12 = alloca ptr, align 8
  store ptr %0, ptr %5, align 8, !tbaa !10
  store ptr %1, ptr %6, align 8, !tbaa !3
  store i32 %2, ptr %7, align 4, !tbaa !16
  call void @llvm.lifetime.start.p0(i64 8, ptr %8) #4
  call void @llvm.lifetime.start.p0(i64 8, ptr %9) #4
  call void @llvm.lifetime.start.p0(i64 4, ptr %10) #4
  %13 = load ptr, ptr %6, align 8, !tbaa !3
  %14 = icmp ne ptr %13, null
  br i1 %14, label %16, label %15

15:                                               ; preds = %3
  store i32 0, ptr %4, align 4
  store i32 1, ptr %11, align 4
  br label %130

16:                                               ; preds = %3
  %17 = load ptr, ptr %6, align 8, !tbaa !3
  %18 = getelementptr inbounds nuw %struct.ASN1_ITEM_st, ptr %17, i32 0, i32 4
  %19 = load ptr, ptr %18, align 8, !tbaa !20
  %20 = icmp ne ptr %19, null
  br i1 %20, label %21, label %56

21:                                               ; preds = %16
  call void @llvm.lifetime.start.p0(i64 8, ptr %12) #4
  %22 = load ptr, ptr %6, align 8, !tbaa !3
  %23 = getelementptr inbounds nuw %struct.ASN1_ITEM_st, ptr %22, i32 0, i32 4
  %24 = load ptr, ptr %23, align 8, !tbaa !20
  store ptr %24, ptr %12, align 8, !tbaa !44
  %25 = load i32, ptr %7, align 4, !tbaa !16
  %26 = icmp ne i32 %25, 0
  br i1 %26, label %27, label %39

27:                                               ; preds = %21
  %28 = load ptr, ptr %12, align 8, !tbaa !44
  %29 = getelementptr inbounds nuw %struct.ASN1_PRIMITIVE_FUNCS_st, ptr %28, i32 0, i32 4
  %30 = load ptr, ptr %29, align 8, !tbaa !46
  %31 = icmp ne ptr %30, null
  br i1 %31, label %32, label %38

32:                                               ; preds = %27
  %33 = load ptr, ptr %12, align 8, !tbaa !44
  %34 = getelementptr inbounds nuw %struct.ASN1_PRIMITIVE_FUNCS_st, ptr %33, i32 0, i32 4
  %35 = load ptr, ptr %34, align 8, !tbaa !46
  %36 = load ptr, ptr %5, align 8, !tbaa !10
  %37 = load ptr, ptr %6, align 8, !tbaa !3
  call void %35(ptr noundef %36, ptr noundef %37)
  store i32 1, ptr %4, align 4
  store i32 1, ptr %11, align 4
  br label %53

38:                                               ; preds = %27
  br label %52

39:                                               ; preds = %21
  %40 = load ptr, ptr %12, align 8, !tbaa !44
  %41 = getelementptr inbounds nuw %struct.ASN1_PRIMITIVE_FUNCS_st, ptr %40, i32 0, i32 2
  %42 = load ptr, ptr %41, align 8, !tbaa !48
  %43 = icmp ne ptr %42, null
  br i1 %43, label %44, label %51

44:                                               ; preds = %39
  %45 = load ptr, ptr %12, align 8, !tbaa !44
  %46 = getelementptr inbounds nuw %struct.ASN1_PRIMITIVE_FUNCS_st, ptr %45, i32 0, i32 2
  %47 = load ptr, ptr %46, align 8, !tbaa !48
  %48 = load ptr, ptr %5, align 8, !tbaa !10
  %49 = load ptr, ptr %6, align 8, !tbaa !3
  %50 = call i32 %47(ptr noundef %48, ptr noundef %49)
  store i32 %50, ptr %4, align 4
  store i32 1, ptr %11, align 4
  br label %53

51:                                               ; preds = %39
  br label %52

52:                                               ; preds = %51, %38
  store i32 0, ptr %11, align 4
  br label %53

53:                                               ; preds = %52, %44, %32
  call void @llvm.lifetime.end.p0(i64 8, ptr %12) #4
  %54 = load i32, ptr %11, align 4
  switch i32 %54, label %130 [
    i32 0, label %55
  ]

55:                                               ; preds = %53
  br label %56

56:                                               ; preds = %55, %16
  %57 = load ptr, ptr %6, align 8, !tbaa !3
  %58 = getelementptr inbounds nuw %struct.ASN1_ITEM_st, ptr %57, i32 0, i32 0
  %59 = load i8, ptr %58, align 8, !tbaa !28
  %60 = sext i8 %59 to i32
  %61 = icmp eq i32 %60, 5
  br i1 %61, label %62, label %63

62:                                               ; preds = %56
  store i32 -1, ptr %10, align 4, !tbaa !16
  br label %68

63:                                               ; preds = %56
  %64 = load ptr, ptr %6, align 8, !tbaa !3
  %65 = getelementptr inbounds nuw %struct.ASN1_ITEM_st, ptr %64, i32 0, i32 1
  %66 = load i64, ptr %65, align 8, !tbaa !49
  %67 = trunc i64 %66 to i32
  store i32 %67, ptr %10, align 4, !tbaa !16
  br label %68

68:                                               ; preds = %63, %62
  %69 = load i32, ptr %10, align 4, !tbaa !16
  switch i32 %69, label %92 [
    i32 6, label %70
    i32 1, label %73
    i32 5, label %79
    i32 -4, label %81
  ]

70:                                               ; preds = %68
  %71 = call ptr @OBJ_nid2obj(i32 noundef 0)
  %72 = load ptr, ptr %5, align 8, !tbaa !10
  store ptr %71, ptr %72, align 8, !tbaa !8
  store i32 1, ptr %4, align 4
  store i32 1, ptr %11, align 4
  br label %130

73:                                               ; preds = %68
  %74 = load ptr, ptr %6, align 8, !tbaa !3
  %75 = getelementptr inbounds nuw %struct.ASN1_ITEM_st, ptr %74, i32 0, i32 5
  %76 = load i64, ptr %75, align 8, !tbaa !35
  %77 = trunc i64 %76 to i32
  %78 = load ptr, ptr %5, align 8, !tbaa !10
  store i32 %77, ptr %78, align 4, !tbaa !16
  store i32 1, ptr %4, align 4
  store i32 1, ptr %11, align 4
  br label %130

79:                                               ; preds = %68
  %80 = load ptr, ptr %5, align 8, !tbaa !10
  store ptr inttoptr (i64 1 to ptr), ptr %80, align 8, !tbaa !8
  store i32 1, ptr %4, align 4
  store i32 1, ptr %11, align 4
  br label %130

81:                                               ; preds = %68
  %82 = call noalias ptr @CRYPTO_malloc(i64 noundef 16, ptr noundef @.str, i32 noundef 301)
  store ptr %82, ptr %8, align 8, !tbaa !50
  %83 = icmp eq ptr %82, null
  br i1 %83, label %84, label %85

84:                                               ; preds = %81
  store i32 0, ptr %4, align 4
  store i32 1, ptr %11, align 4
  br label %130

85:                                               ; preds = %81
  %86 = load ptr, ptr %8, align 8, !tbaa !50
  %87 = getelementptr inbounds nuw %struct.asn1_type_st, ptr %86, i32 0, i32 1
  store ptr null, ptr %87, align 8, !tbaa !52
  %88 = load ptr, ptr %8, align 8, !tbaa !50
  %89 = getelementptr inbounds nuw %struct.asn1_type_st, ptr %88, i32 0, i32 0
  store i32 -1, ptr %89, align 8, !tbaa !53
  %90 = load ptr, ptr %8, align 8, !tbaa !50
  %91 = load ptr, ptr %5, align 8, !tbaa !10
  store ptr %90, ptr %91, align 8, !tbaa !8
  br label %124

92:                                               ; preds = %68
  %93 = load i32, ptr %7, align 4, !tbaa !16
  %94 = icmp ne i32 %93, 0
  br i1 %94, label %95, label %104

95:                                               ; preds = %92
  %96 = load ptr, ptr %5, align 8, !tbaa !10
  %97 = load ptr, ptr %96, align 8, !tbaa !55
  store ptr %97, ptr %9, align 8, !tbaa !55
  %98 = load ptr, ptr %9, align 8, !tbaa !55
  call void @llvm.memset.p0.i64(ptr align 8 %98, i8 0, i64 24, i1 false)
  %99 = load i32, ptr %10, align 4, !tbaa !16
  %100 = load ptr, ptr %9, align 8, !tbaa !55
  %101 = getelementptr inbounds nuw %struct.asn1_string_st, ptr %100, i32 0, i32 1
  store i32 %99, ptr %101, align 4, !tbaa !57
  %102 = load ptr, ptr %9, align 8, !tbaa !55
  %103 = getelementptr inbounds nuw %struct.asn1_string_st, ptr %102, i32 0, i32 3
  store i64 128, ptr %103, align 8, !tbaa !59
  br label %109

104:                                              ; preds = %92
  %105 = load i32, ptr %10, align 4, !tbaa !16
  %106 = call ptr @ASN1_STRING_type_new(i32 noundef %105)
  store ptr %106, ptr %9, align 8, !tbaa !55
  %107 = load ptr, ptr %9, align 8, !tbaa !55
  %108 = load ptr, ptr %5, align 8, !tbaa !10
  store ptr %107, ptr %108, align 8, !tbaa !8
  br label %109

109:                                              ; preds = %104, %95
  %110 = load ptr, ptr %6, align 8, !tbaa !3
  %111 = getelementptr inbounds nuw %struct.ASN1_ITEM_st, ptr %110, i32 0, i32 0
  %112 = load i8, ptr %111, align 8, !tbaa !28
  %113 = sext i8 %112 to i32
  %114 = icmp eq i32 %113, 5
  br i1 %114, label %115, label %123

115:                                              ; preds = %109
  %116 = load ptr, ptr %9, align 8, !tbaa !55
  %117 = icmp ne ptr %116, null
  br i1 %117, label %118, label %123

118:                                              ; preds = %115
  %119 = load ptr, ptr %9, align 8, !tbaa !55
  %120 = getelementptr inbounds nuw %struct.asn1_string_st, ptr %119, i32 0, i32 3
  %121 = load i64, ptr %120, align 8, !tbaa !59
  %122 = or i64 %121, 64
  store i64 %122, ptr %120, align 8, !tbaa !59
  br label %123

123:                                              ; preds = %118, %115, %109
  br label %124

124:                                              ; preds = %123, %85
  %125 = load ptr, ptr %5, align 8, !tbaa !10
  %126 = load ptr, ptr %125, align 8, !tbaa !8
  %127 = icmp ne ptr %126, null
  br i1 %127, label %128, label %129

128:                                              ; preds = %124
  store i32 1, ptr %4, align 4
  store i32 1, ptr %11, align 4
  br label %130

129:                                              ; preds = %124
  store i32 0, ptr %4, align 4
  store i32 1, ptr %11, align 4
  br label %130

130:                                              ; preds = %129, %128, %84, %79, %73, %70, %53, %15
  call void @llvm.lifetime.end.p0(i64 4, ptr %10) #4
  call void @llvm.lifetime.end.p0(i64 8, ptr %9) #4
  call void @llvm.lifetime.end.p0(i64 8, ptr %8) #4
  %131 = load i32, ptr %4, align 4
  ret i32 %131
}