; Function Attrs: nounwind uwtable
define internal fastcc i32 @asn1_primitive_new(ptr noundef %0, ptr noundef %1, i32 noundef range(i32 0, 4097) %2) unnamed_addr #0 {
  %.not = icmp eq ptr %1, null
  br i1 %.not, label %51, label %4

4:                                                ; preds = %3
  %5 = getelementptr inbounds nuw i8, ptr %1, i64 32
  %6 = load ptr, ptr %5, align 8, !tbaa !8
  %.not46 = icmp eq ptr %6, null
  br i1 %.not46, label %.thread, label %7

7:                                                ; preds = %4
  %.not47 = icmp eq i32 %2, 0
  br i1 %.not47, label %12, label %8

8:                                                ; preds = %7
  %9 = getelementptr inbounds nuw i8, ptr %6, i64 32
  %10 = load ptr, ptr %9, align 8, !tbaa !29
  %.not49 = icmp eq ptr %10, null
  br i1 %.not49, label %.thread, label %11

11:                                               ; preds = %8
  tail call void %10(ptr noundef %0, ptr noundef nonnull %1) #4
  br label %51

12:                                               ; preds = %7
  %13 = getelementptr inbounds nuw i8, ptr %6, i64 16
  %14 = load ptr, ptr %13, align 8, !tbaa !33
  %.not48 = icmp eq ptr %14, null
  br i1 %.not48, label %.thread, label %15

15:                                               ; preds = %12
  %16 = tail call i32 %14(ptr noundef %0, ptr noundef nonnull %1) #4
  br label %51

.thread:                                          ; preds = %8, %12, %4
  %17 = load i8, ptr %1, align 8, !tbaa !16
  %18 = icmp eq i8 %17, 5
  br i1 %18, label %.thread54, label %19

19:                                               ; preds = %.thread
  %20 = getelementptr inbounds nuw i8, ptr %1, i64 8
  %21 = load i64, ptr %20, align 8, !tbaa !31
  %22 = trunc i64 %21 to i32
  switch i32 %22, label %.thread54 [
    i32 6, label %23
    i32 1, label %25
    i32 5, label %29
    i32 -4, label %30
  ]

23:                                               ; preds = %19
  %24 = tail call ptr @OBJ_nid2obj(i32 noundef 0) #4
  store ptr %24, ptr %0, align 8, !tbaa !3
  br label %51

25:                                               ; preds = %19
  %26 = getelementptr inbounds nuw i8, ptr %1, i64 40
  %27 = load i64, ptr %26, align 8, !tbaa !21
  %28 = trunc i64 %27 to i32
  store i32 %28, ptr %0, align 4, !tbaa !32
  br label %51

29:                                               ; preds = %19
  store ptr inttoptr (i64 1 to ptr), ptr %0, align 8, !tbaa !3
  br label %51

30:                                               ; preds = %19
  %31 = tail call noalias ptr @CRYPTO_malloc(i64 noundef 16, ptr noundef nonnull @.str, i32 noundef 301) #4
  %32 = icmp eq ptr %31, null
  br i1 %32, label %51, label %33

33:                                               ; preds = %30
  %34 = getelementptr inbounds nuw i8, ptr %31, i64 8
  store ptr null, ptr %34, align 8, !tbaa !34
  store i32 -1, ptr %31, align 8, !tbaa !35
  store ptr %31, ptr %0, align 8, !tbaa !3
  br label %49

.thread54:                                        ; preds = %.thread, %19
  %.03956 = phi i32 [ %22, %19 ], [ -1, %.thread ]
  %.not50 = icmp eq i32 %2, 0
  br i1 %.not50, label %39, label %35

35:                                               ; preds = %.thread54
  %36 = load ptr, ptr %0, align 8, !tbaa !37
  tail call void @llvm.memset.p0.i64(ptr noundef nonnull align 8 dereferenceable(24) %36, i8 0, i64 16, i1 false)
  %37 = getelementptr inbounds nuw i8, ptr %36, i64 4
  store i32 %.03956, ptr %37, align 4, !tbaa !39
  %38 = getelementptr inbounds nuw i8, ptr %36, i64 16
  store i64 128, ptr %38, align 8, !tbaa !41
  br label %41

39:                                               ; preds = %.thread54
  %40 = tail call ptr @ASN1_STRING_type_new(i32 noundef %.03956) #4
  store ptr %40, ptr %0, align 8, !tbaa !3
  br label %41

41:                                               ; preds = %39, %35
  %.040 = phi ptr [ %36, %35 ], [ %40, %39 ]
  %42 = load i8, ptr %1, align 8, !tbaa !16
  %43 = icmp eq i8 %42, 5
  %44 = icmp ne ptr %.040, null
  %or.cond = select i1 %43, i1 %44, i1 false
  br i1 %or.cond, label %45, label %49

45:                                               ; preds = %41
  %46 = getelementptr inbounds nuw i8, ptr %.040, i64 16
  %47 = load i64, ptr %46, align 8, !tbaa !41
  %48 = or i64 %47, 64
  store i64 %48, ptr %46, align 8, !tbaa !41
  br label %49

49:                                               ; preds = %41, %45, %33
  %50 = load ptr, ptr %0, align 8, !tbaa !3
  %.not51 = icmp ne ptr %50, null
  %. = zext i1 %.not51 to i32
  br label %51

51:                                               ; preds = %11, %15, %49, %30, %3, %29, %25, %23
  %.0 = phi i32 [ 1, %29 ], [ 1, %25 ], [ 1, %23 ], [ 0, %3 ], [ 0, %30 ], [ %., %49 ], [ 1, %11 ], [ %16, %15 ]
  ret i32 %.0
}